target datalayout = "e-m:e-p270:32:32-p271:32:32-p272:64:64-i64:64-i128:128-f80:128-n8:16:32:64-S128"
target triple = "x86_64-pc-linux-gnu"

%struct.Box = type { ptr }
%struct.AVCodecContext = type { ptr, i32, i32, ptr, i32, i32, ptr, ptr, ptr, i64, i32, i32, ptr, i32, %struct.AVRational, %struct.AVRational, %struct.AVRational, i32, i32, i32, i32, i32, %struct.AVRational, i32, i32, i32, i32, i32, i32, i32, i32, i32, i32, i32, ptr, ptr, i32, float, float, float, float, float, float, float, float, float, i32, i32, i32, i32, i32, i32, i32, i32, i32, i32, i32, i32, ptr, ptr, ptr, i32, i32, i32, i32, i32, i32, i32, i32, i32, i32, %struct.AVChannelLayout, i32, i32, i32, i32, i32, i32, i32, i32, ptr, i32, i32, i32, float, float, i32, i32, i32, i32, i32, ptr, i64, i64, float, float, i32, i32, ptr, ptr, i32, i32, i32, i32, i32, ptr, ptr, ptr, ptr, i32, i32, [8 x i64], i32, i32, i32, i32, i32, i32, i32, ptr, ptr, i32, i32, i32, i32, i32, i32, i32, i32, i32, i32, ptr, ptr, i32, i32, ptr, ptr, ptr, ptr, i32, i32, i64, i32, i32, i64, ptr, i64, ptr, i32, ptr, i32 }
%struct.AVRational = type { i32, i32 }
%struct.AVChannelLayout = type { i32, i32, %union.anon.1, ptr }
%union.anon.1 = type { i64 }
%struct.MovTextContext = type { ptr, ptr, ptr, ptr, ptr, i32, i32, %struct.StyleBox, %struct.AVBPrint, %struct.HighlightBox, %struct.HilightcolorBox, i8, %struct.StyleBox, i16, ptr, i32, double, i32 }
%struct.AVBPrint = type { ptr, i32, i32, i32, [1 x i8], [1000 x i8] }
%struct.HighlightBox = type { i16, i16 }
%struct.HilightcolorBox = type { i32 }
%struct.StyleBox = type { i16, i16, i8, i16, i8, i32 }
%struct.AVSubtitle = type { i16, i32, i32, i32, ptr, i64 }
%struct.AVSubtitleRect = type { i32, i32, i32, i32, i32, [4 x ptr], [4 x i32], i32, i32, ptr, ptr }
%struct.ASSDialog = type { i32, i32, i32, i32, ptr, ptr, i32, i32, i32, ptr, ptr }

@.str.9 = private unnamed_addr constant [35 x i8] c"Only SUBTITLE_ASS type supported.\0A\00", align 1
@box_types = internal constant [3 x %struct.Box] [%struct.Box { ptr @encode_styl }, %struct.Box { ptr @encode_hlit }, %struct.Box { ptr @encode_hclr }], align 16
@.str.10 = private unnamed_addr constant [33 x i8] c"Buffer too small for ASS event.\0A\00", align 1

; Function Attrs: inlinehint nounwind uwtable
define internal i32 @av_bprint_is_complete(ptr noundef %0) #7 {
  %2 = alloca ptr, align 8
  store ptr %0, ptr %2, align 8, !tbaa !98
  %3 = load ptr, ptr %2, align 8, !tbaa !98
  %4 = getelementptr inbounds nuw %struct.AVBPrint, ptr %3, i32 0, i32 1
  %5 = load i32, ptr %4, align 8, !tbaa !100
  %6 = load ptr, ptr %2, align 8, !tbaa !98
  %7 = getelementptr inbounds nuw %struct.AVBPrint, ptr %6, i32 0, i32 2
  %8 = load i32, ptr %7, align 4, !tbaa !101
  %9 = icmp ult i32 %5, %8
  %10 = zext i1 %9 to i32
  ret i32 %10
}

; Function Attrs: alwaysinline nounwind willreturn memory(none) uwtable
define internal zeroext i16 @av_bswap16(i16 noundef zeroext %0) #9 {
  %2 = alloca i16, align 2
  store i16 %0, ptr %2, align 2, !tbaa !102
  %3 = load i16, ptr %2, align 2, !tbaa !102
  %4 = zext i16 %3 to i32
  %5 = ashr i32 %4, 8
  %6 = load i16, ptr %2, align 2, !tbaa !102
  %7 = zext i16 %6 to i32
  %8 = shl i32 %7, 8
  %9 = or i32 %5, %8
  %10 = trunc i32 %9 to i16
  store i16 %10, ptr %2, align 2, !tbaa !102
  %11 = load i16, ptr %2, align 2, !tbaa !102
  ret i16 %11
}

; Function Attrs: nounwind uwtable
define internal void @mov_text_dialog(ptr noundef %0, ptr noundef %1) #1 {
  %3 = alloca ptr, align 8
  %4 = alloca ptr, align 8
  %5 = alloca ptr, align 8
  store ptr %0, ptr %3, align 8, !tbaa !29
  store ptr %1, ptr %4, align 8, !tbaa !29
  call void @llvm.lifetime.start.p0(i64 8, ptr %5) #11
  %6 = load ptr, ptr %3, align 8, !tbaa !29
  %7 = getelementptr inbounds nuw %struct.MovTextContext, ptr %6, i32 0, i32 2
  %8 = load ptr, ptr %7, align 8, !tbaa !41
  %9 = load ptr, ptr %4, align 8, !tbaa !29
  %10 = getelementptr inbounds nuw %struct.ASSDialog, ptr %9, i32 0, i32 4
  %11 = load ptr, ptr %10, align 8, !tbaa !103
  %12 = call ptr @ff_ass_style_get(ptr noundef %8, ptr noundef %11)
  store ptr %12, ptr %5, align 8, !tbaa !29
  %13 = load ptr, ptr %5, align 8, !tbaa !29
  %14 = load ptr, ptr %3, align 8, !tbaa !29
  %15 = getelementptr inbounds nuw %struct.MovTextContext, ptr %14, i32 0, i32 3
  store ptr %13, ptr %15, align 8, !tbaa !104
  %16 = load ptr, ptr %3, align 8, !tbaa !29
  %17 = load ptr, ptr %5, align 8, !tbaa !29
  call void @mov_text_ass_style_set(ptr noundef %16, ptr noundef %17)
  call void @llvm.lifetime.end.p0(i64 8, ptr %5) #11
  ret void
}

; Function Attrs: nounwind uwtable
define internal i32 @mov_text_encode_frame(ptr noundef %0, ptr noundef %1, i32 noundef %2, ptr noundef %3) #1 {
  %5 = alloca i32, align 4
  %6 = alloca ptr, align 8
  %7 = alloca ptr, align 8
  %8 = alloca i32, align 4
  %9 = alloca ptr, align 8
  %10 = alloca ptr, align 8
  %11 = alloca ptr, align 8
  %12 = alloca i32, align 4
  %13 = alloca i32, align 4
  %14 = alloca ptr, align 8
  %15 = alloca i32, align 4
  %16 = alloca i64, align 8
  store ptr %0, ptr %6, align 8, !tbaa !4
  store ptr %1, ptr %7, align 8, !tbaa !43
  store i32 %2, ptr %8, align 4, !tbaa !42
  store ptr %3, ptr %9, align 8, !tbaa !44
  call void @llvm.lifetime.start.p0(i64 8, ptr %10) #11
  %17 = load ptr, ptr %6, align 8, !tbaa !4
  %18 = getelementptr inbounds nuw %struct.AVCodecContext, ptr %17, i32 0, i32 6
  %19 = load ptr, ptr %18, align 8, !tbaa !9
  store ptr %19, ptr %10, align 8, !tbaa !29
  call void @llvm.lifetime.start.p0(i64 8, ptr %11) #11
  call void @llvm.lifetime.start.p0(i64 4, ptr %12) #11
  call void @llvm.lifetime.start.p0(i64 4, ptr %13) #11
  %20 = load i32, ptr %8, align 4, !tbaa !42
  %21 = icmp slt i32 %20, 3
  br i1 %21, label %22, label %23

22:                                               ; preds = %4
  br label %128

23:                                               ; preds = %4
  %24 = load ptr, ptr %10, align 8, !tbaa !29
  %25 = getelementptr inbounds nuw %struct.MovTextContext, ptr %24, i32 0, i32 13
  store i16 0, ptr %25, align 4, !tbaa !46
  %26 = load ptr, ptr %10, align 8, !tbaa !29
  %27 = getelementptr inbounds nuw %struct.MovTextContext, ptr %26, i32 0, i32 5
  store i32 0, ptr %27, align 8, !tbaa !47
  %28 = load ptr, ptr %10, align 8, !tbaa !29
  %29 = getelementptr inbounds nuw %struct.MovTextContext, ptr %28, i32 0, i32 11
  store i8 0, ptr %29, align 8, !tbaa !48
  %30 = load ptr, ptr %10, align 8, !tbaa !29
  %31 = getelementptr inbounds nuw %struct.MovTextContext, ptr %30, i32 0, i32 8
  %32 = load ptr, ptr %7, align 8, !tbaa !43
  %33 = getelementptr inbounds i8, ptr %32, i64 2
  %34 = load i32, ptr %8, align 4, !tbaa !42
  %35 = sub nsw i32 %34, 2
  call void @av_bprint_init_for_buffer(ptr noundef %31, ptr noundef %33, i32 noundef %35)
  store i32 0, ptr %12, align 4, !tbaa !42
  br label %36

36:                                               ; preds = %84, %23
  %37 = load i32, ptr %12, align 4, !tbaa !42
  %38 = load ptr, ptr %9, align 8, !tbaa !44
  %39 = getelementptr inbounds nuw %struct.AVSubtitle, ptr %38, i32 0, i32 3
  %40 = load i32, ptr %39, align 4, !tbaa !49
  %41 = icmp ult i32 %37, %40
  br i1 %41, label %42, label %87

42:                                               ; preds = %36
  call void @llvm.lifetime.start.p0(i64 8, ptr %14) #11
  %43 = load ptr, ptr %9, align 8, !tbaa !44
  %44 = getelementptr inbounds nuw %struct.AVSubtitle, ptr %43, i32 0, i32 4
  %45 = load ptr, ptr %44, align 8, !tbaa !52
  %46 = load i32, ptr %12, align 4, !tbaa !42
  %47 = sext i32 %46 to i64
  %48 = getelementptr inbounds ptr, ptr %45, i64 %47
  %49 = load ptr, ptr %48, align 8, !tbaa !53
  %50 = getelementptr inbounds nuw %struct.AVSubtitleRect, ptr %49, i32 0, i32 10
  %51 = load ptr, ptr %50, align 8, !tbaa !55
  store ptr %51, ptr %14, align 8, !tbaa !43
  %52 = load ptr, ptr %9, align 8, !tbaa !44
  %53 = getelementptr inbounds nuw %struct.AVSubtitle, ptr %52, i32 0, i32 4
  %54 = load ptr, ptr %53, align 8, !tbaa !52
  %55 = load i32, ptr %12, align 4, !tbaa !42
  %56 = sext i32 %55 to i64
  %57 = getelementptr inbounds ptr, ptr %54, i64 %56
  %58 = load ptr, ptr %57, align 8, !tbaa !53
  %59 = getelementptr inbounds nuw %struct.AVSubtitleRect, ptr %58, i32 0, i32 8
  %60 = load i32, ptr %59, align 4, !tbaa !57
  %61 = icmp ne i32 %60, 3
  br i1 %61, label %62, label %64

62:                                               ; preds = %42
  %63 = load ptr, ptr %6, align 8, !tbaa !4
  call void (ptr, i32, ptr, ...) @av_log(ptr noundef %63, i32 noundef 16, ptr noundef @.str.9)
  store i32 -22, ptr %5, align 4
  store i32 1, ptr %15, align 4
  br label %81

64:                                               ; preds = %42
  %65 = load ptr, ptr %10, align 8, !tbaa !29
  %66 = getelementptr inbounds nuw %struct.MovTextContext, ptr %65, i32 0, i32 2
  %67 = load ptr, ptr %66, align 8, !tbaa !41
  %68 = load ptr, ptr %14, align 8, !tbaa !43
  %69 = call ptr @ff_ass_split_dialog(ptr noundef %67, ptr noundef %68)
  store ptr %69, ptr %11, align 8, !tbaa !29
  %70 = load ptr, ptr %11, align 8, !tbaa !29
  %71 = icmp ne ptr %70, null
  br i1 %71, label %73, label %72

72:                                               ; preds = %64
  store i32 -12, ptr %5, align 4
  store i32 1, ptr %15, align 4
  br label %81

73:                                               ; preds = %64
  %74 = load ptr, ptr %10, align 8, !tbaa !29
  %75 = load ptr, ptr %11, align 8, !tbaa !29
  call void @mov_text_dialog(ptr noundef %74, ptr noundef %75)
  %76 = load ptr, ptr %10, align 8, !tbaa !29
  %77 = load ptr, ptr %11, align 8, !tbaa !29
  %78 = getelementptr inbounds nuw %struct.ASSDialog, ptr %77, i32 0, i32 10
  %79 = load ptr, ptr %78, align 8, !tbaa !58
  %80 = call i32 @ff_ass_split_override_codes(ptr noundef @mov_text_callbacks, ptr noundef %76, ptr noundef %79)
  call void @ff_ass_free_dialog(ptr noundef %11)
  store i32 0, ptr %15, align 4
  br label %81

81:                                               ; preds = %73, %72, %62
  call void @llvm.lifetime.end.p0(i64 8, ptr %14) #11
  %82 = load i32, ptr %15, align 4
  switch i32 %82, label %137 [
    i32 0, label %83
  ]

83:                                               ; preds = %81
  br label %84

84:                                               ; preds = %83
  %85 = load i32, ptr %12, align 4, !tbaa !42
  %86 = add nsw i32 %85, 1
  store i32 %86, ptr %12, align 4, !tbaa !42
  br label %36, !llvm.loop !60

87:                                               ; preds = %36
  %88 = load ptr, ptr %10, align 8, !tbaa !29
  %89 = getelementptr inbounds nuw %struct.MovTextContext, ptr %88, i32 0, i32 8
  %90 = getelementptr inbounds nuw %struct.AVBPrint, ptr %89, i32 0, i32 1
  %91 = load i32, ptr %90, align 8, !tbaa !62
  %92 = icmp ugt i32 %91, 65535
  br i1 %92, label %93, label %94

93:                                               ; preds = %87
  store i32 -34, ptr %5, align 4
  store i32 1, ptr %15, align 4
  br label %137

94:                                               ; preds = %87
  %95 = load ptr, ptr %10, align 8, !tbaa !29
  %96 = getelementptr inbounds nuw %struct.MovTextContext, ptr %95, i32 0, i32 8
  %97 = getelementptr inbounds nuw %struct.AVBPrint, ptr %96, i32 0, i32 1
  %98 = load i32, ptr %97, align 8, !tbaa !62
  %99 = trunc i32 %98 to i16
  %100 = call zeroext i16 @av_bswap16(i16 noundef zeroext %99) #12
  %101 = load ptr, ptr %7, align 8, !tbaa !43
  store i16 %100, ptr %101, align 1, !tbaa !63
  call void @llvm.lifetime.start.p0(i64 8, ptr %16) #11
  store i64 0, ptr %16, align 8, !tbaa !64
  br label %102

102:                                              ; preds = %112, %94
  %103 = load i64, ptr %16, align 8, !tbaa !64
  %104 = icmp ult i64 %103, 3
  br i1 %104, label %106, label %105

105:                                              ; preds = %102
  store i32 6, ptr %15, align 4
  call void @llvm.lifetime.end.p0(i64 8, ptr %16) #11
  br label %115

106:                                              ; preds = %102
  %107 = load i64, ptr %16, align 8, !tbaa !64
  %108 = getelementptr inbounds nuw [3 x %struct.Box], ptr @box_types, i64 0, i64 %107
  %109 = getelementptr inbounds nuw %struct.Box, ptr %108, i32 0, i32 0
  %110 = load ptr, ptr %109, align 8, !tbaa !65
  %111 = load ptr, ptr %10, align 8, !tbaa !29
  call void %110(ptr noundef %111)
  br label %112

112:                                              ; preds = %106
  %113 = load i64, ptr %16, align 8, !tbaa !64
  %114 = add i64 %113, 1
  store i64 %114, ptr %16, align 8, !tbaa !64
  br label %102, !llvm.loop !67

115:                                              ; preds = %105
  %116 = load ptr, ptr %10, align 8, !tbaa !29
  %117 = getelementptr inbounds nuw %struct.MovTextContext, ptr %116, i32 0, i32 8
  %118 = getelementptr inbounds nuw %struct.AVBPrint, ptr %117, i32 0, i32 1
  %119 = load i32, ptr %118, align 8, !tbaa !62
  %120 = icmp ne i32 %119, 0
  br i1 %120, label %122, label %121

121:                                              ; preds = %115
  store i32 0, ptr %5, align 4
  store i32 1, ptr %15, align 4
  br label %137

122:                                              ; preds = %115
  %123 = load ptr, ptr %10, align 8, !tbaa !29
  %124 = getelementptr inbounds nuw %struct.MovTextContext, ptr %123, i32 0, i32 8
  %125 = call i32 @av_bprint_is_complete(ptr noundef %124)
  %126 = icmp ne i32 %125, 0
  br i1 %126, label %130, label %127

127:                                              ; preds = %122
  br label %128

128:                                              ; preds = %127, %22
  %129 = load ptr, ptr %6, align 8, !tbaa !4
  call void (ptr, i32, ptr, ...) @av_log(ptr noundef %129, i32 noundef 16, ptr noundef @.str.10)
  store i32 -1397118274, ptr %5, align 4
  store i32 1, ptr %15, align 4
  br label %137

130:                                              ; preds = %122
  %131 = load ptr, ptr %10, align 8, !tbaa !29
  %132 = getelementptr inbounds nuw %struct.MovTextContext, ptr %131, i32 0, i32 8
  %133 = getelementptr inbounds nuw %struct.AVBPrint, ptr %132, i32 0, i32 1
  %134 = load i32, ptr %133, align 8, !tbaa !62
  %135 = add i32 %134, 2
  store i32 %135, ptr %13, align 4, !tbaa !42
  %136 = load i32, ptr %13, align 4, !tbaa !42
  store i32 %136, ptr %5, align 4
  store i32 1, ptr %15, align 4
  br label %137

137:                                              ; preds = %130, %128, %121, %93, %81
  call void @llvm.lifetime.end.p0(i64 4, ptr %13) #11
  call void @llvm.lifetime.end.p0(i64 4, ptr %12) #11
  call void @llvm.lifetime.end.p0(i64 8, ptr %11) #11
  call void @llvm.lifetime.end.p0(i64 8, ptr %10) #11
  %138 = load i32, ptr %5, align 4
  ret i32 %138
}