; Function Attrs: nounwind uwtable
define internal range(i32 3, 1) i32 @mov_text_encode_frame(ptr noundef %0, ptr noundef %1, i32 noundef %2, ptr noundef readonly captures(none) %3) #1 {
  %5 = alloca ptr, align 8
  %6 = getelementptr inbounds nuw i8, ptr %0, i64 32
  %7 = load ptr, ptr %6, align 8, !tbaa !4
  call void @llvm.lifetime.start.p0(i64 8, ptr nonnull %5) #8
  %8 = icmp slt i32 %2, 3
  br i1 %8, label %58, label %9

9:                                                ; preds = %4
  %10 = getelementptr inbounds nuw i8, ptr %7, i64 1116
  store i16 0, ptr %10, align 4, !tbaa !74
  %11 = getelementptr inbounds nuw i8, ptr %7, i64 40
  store i32 0, ptr %11, align 8, !tbaa !75
  %12 = getelementptr inbounds nuw i8, ptr %7, i64 1096
  store i8 0, ptr %12, align 8, !tbaa !76
  %13 = getelementptr inbounds nuw i8, ptr %7, i64 64
  %14 = getelementptr inbounds nuw i8, ptr %1, i64 2
  %15 = add nsw i32 %2, -2
  tail call void @av_bprint_init_for_buffer(ptr noundef nonnull %13, ptr noundef nonnull %14, i32 noundef %15) #8
  %16 = getelementptr inbounds nuw i8, ptr %3, i64 12
  %17 = load i32, ptr %16, align 4, !tbaa !77
  %.not49 = icmp eq i32 %17, 0
  br i1 %.not49, label %._crit_edge, label %.lr.ph

.lr.ph:                                           ; preds = %9
  %18 = getelementptr inbounds nuw i8, ptr %3, i64 16
  %19 = getelementptr inbounds nuw i8, ptr %7, i64 16
  %20 = getelementptr inbounds nuw i8, ptr %7, i64 24
  br label %21

21:                                               ; preds = %.lr.ph, %33
  %indvars.iv = phi i64 [ 0, %.lr.ph ], [ %indvars.iv.next, %33 ]
  %22 = load ptr, ptr %18, align 8, !tbaa !80
  %23 = getelementptr inbounds nuw ptr, ptr %22, i64 %indvars.iv
  %24 = load ptr, ptr %23, align 8, !tbaa !81
  %25 = getelementptr inbounds nuw i8, ptr %24, i64 76
  %26 = load i32, ptr %25, align 4, !tbaa !83
  %.not40 = icmp eq i32 %26, 3
  br i1 %.not40, label %28, label %27

27:                                               ; preds = %21
  call void (ptr, i32, ptr, ...) @av_log(ptr noundef %0, i32 noundef 16, ptr noundef nonnull @.str.9) #8
  br label %.thread

28:                                               ; preds = %21
  %29 = getelementptr inbounds nuw i8, ptr %24, i64 88
  %30 = load ptr, ptr %29, align 8, !tbaa !85
  %31 = load ptr, ptr %19, align 8, !tbaa !39
  %32 = call ptr @ff_ass_split_dialog(ptr noundef %31, ptr noundef %30) #8
  store ptr %32, ptr %5, align 8, !tbaa !86
  %.not41 = icmp eq ptr %32, null
  br i1 %.not41, label %.thread, label %33

33:                                               ; preds = %28
  %34 = getelementptr i8, ptr %32, i64 16
  %.val = load ptr, ptr %34, align 8, !tbaa !87
  %35 = load ptr, ptr %19, align 8, !tbaa !39
  %36 = call ptr @ff_ass_style_get(ptr noundef %35, ptr noundef %.val) #8
  store ptr %36, ptr %20, align 8, !tbaa !89
  call fastcc void @mov_text_ass_style_set(ptr noundef nonnull %7, ptr noundef %36)
  %37 = load ptr, ptr %5, align 8, !tbaa !86
  %38 = getelementptr inbounds nuw i8, ptr %37, i64 56
  %39 = load ptr, ptr %38, align 8, !tbaa !90
  %40 = call i32 @ff_ass_split_override_codes(ptr noundef nonnull @mov_text_callbacks, ptr noundef nonnull %7, ptr noundef %39) #8
  call void @ff_ass_free_dialog(ptr noundef nonnull %5) #8
  %indvars.iv.next = add nuw nsw i64 %indvars.iv, 1
  %41 = load i32, ptr %16, align 4, !tbaa !77
  %42 = zext i32 %41 to i64
  %43 = icmp samesign ult i64 %indvars.iv.next, %42
  br i1 %43, label %21, label %._crit_edge, !llvm.loop !91

._crit_edge:                                      ; preds = %33, %9
  %44 = getelementptr i8, ptr %7, i64 72
  %45 = load i32, ptr %44, align 8, !tbaa !92
  %46 = icmp ugt i32 %45, 65535
  br i1 %46, label %.thread, label %47

47:                                               ; preds = %._crit_edge
  %48 = trunc nuw i32 %45 to i16
  %49 = call i16 @llvm.bswap.i16(i16 %48)
  store i16 %49, ptr %1, align 1, !tbaa !58
  br label %52

50:                                               ; preds = %52
  %51 = load i32, ptr %44, align 8, !tbaa !92
  %.not = icmp eq i32 %51, 0
  br i1 %.not, label %.thread, label %56

52:                                               ; preds = %47, %52
  %.048 = phi i64 [ 0, %47 ], [ %55, %52 ]
  %53 = getelementptr inbounds nuw [3 x %struct.Box], ptr @box_types, i64 0, i64 %.048
  %54 = load ptr, ptr %53, align 8, !tbaa !93
  call void %54(ptr noundef nonnull %7) #8
  %55 = add nuw nsw i64 %.048, 1
  %exitcond.not = icmp eq i64 %55, 3
  br i1 %exitcond.not, label %50, label %52, !llvm.loop !95

56:                                               ; preds = %50
  %57 = getelementptr i8, ptr %7, i64 76
  %.val43 = load i32, ptr %57, align 4, !tbaa !70
  %.not46 = icmp ult i32 %51, %.val43
  br i1 %.not46, label %59, label %58

58:                                               ; preds = %56, %4
  call void (ptr, i32, ptr, ...) @av_log(ptr noundef %0, i32 noundef 16, ptr noundef nonnull @.str.10) #8
  br label %.thread

59:                                               ; preds = %56
  %60 = add i32 %51, 2
  br label %.thread

.thread:                                          ; preds = %28, %27, %50, %._crit_edge, %59, %58
  %.2 = phi i32 [ -1397118274, %58 ], [ %60, %59 ], [ -34, %._crit_edge ], [ 0, %50 ], [ -22, %27 ], [ -12, %28 ]
  call void @llvm.lifetime.end.p0(i64 8, ptr nonnull %5) #8
  ret i32 %.2
}